target datalayout = "e-m:e-p270:32:32-p271:32:32-p272:64:64-i64:64-i128:128-f80:128-n8:16:32:64-S128"
target triple = "x86_64-pc-linux-gnu"

%struct.FunctionCallInfoBaseData = type { ptr, ptr, ptr, i32, i8, i16, [0 x %struct.NullableDatum] }
%struct.NullableDatum = type { i64, i8 }
%struct.GISTENTRY = type { i64, ptr, ptr, i16, i8 }
%struct.GistInetKey = type { i8, i8, i8, i8, [16 x i8] }
%struct.varattrib_1b = type { i8, [0 x i8] }
%struct.anon = type { i32, [0 x i8] }
%struct.inet_struct = type { i8, i8, [16 x i8] }

; Function Attrs: inlinehint nounwind uwtable
define internal i64 @PointerGetDatum(ptr noundef %0) #2 {
  %2 = alloca ptr, align 8
  store ptr %0, ptr %2, align 8
  %3 = load ptr, ptr %2, align 8
  %4 = ptrtoint ptr %3 to i64
  ret i64 %4
}

; Function Attrs: inlinehint nounwind uwtable
define internal ptr @DatumGetInetPP(i64 noundef %0) #2 {
  %2 = alloca i64, align 8
  store i64 %0, ptr %2, align 8
  %3 = load i64, ptr %2, align 8
  %4 = call ptr @DatumGetPointer(i64 noundef %3)
  %5 = call ptr @pg_detoast_datum_packed(ptr noundef %4)
  ret ptr %5
}

; Function Attrs: inlinehint nounwind uwtable
define internal ptr @DatumGetPointer(i64 noundef %0) #2 {
  %2 = alloca i64, align 8
  store i64 %0, ptr %2, align 8
  %3 = load i64, ptr %2, align 8
  %4 = inttoptr i64 %3 to ptr
  ret ptr %4
}

; Function Attrs: nounwind uwtable
define dso_local i64 @inet_gist_compress(ptr noundef %0) #0 {
  %2 = alloca ptr, align 8
  %3 = alloca ptr, align 8
  %4 = alloca ptr, align 8
  %5 = alloca ptr, align 8
  %6 = alloca ptr, align 8
  store ptr %0, ptr %2, align 8
  call void @llvm.lifetime.start.p0(i64 8, ptr %3) #7
  %7 = load ptr, ptr %2, align 8
  %8 = getelementptr inbounds nuw %struct.FunctionCallInfoBaseData, ptr %7, i32 0, i32 6
  %9 = getelementptr inbounds [0 x %struct.NullableDatum], ptr %8, i64 0, i64 0
  %10 = getelementptr inbounds nuw %struct.NullableDatum, ptr %9, i32 0, i32 0
  %11 = load i64, ptr %10, align 8
  %12 = call ptr @DatumGetPointer(i64 noundef %11)
  store ptr %12, ptr %3, align 8
  call void @llvm.lifetime.start.p0(i64 8, ptr %4) #7
  %13 = load ptr, ptr %3, align 8
  %14 = getelementptr inbounds nuw %struct.GISTENTRY, ptr %13, i32 0, i32 4
  %15 = load i8, ptr %14, align 2, !range !4, !noundef !5
  %16 = trunc i8 %15 to i1
  br i1 %16, label %17, label %170

17:                                               ; preds = %1
  %18 = call ptr @palloc(i64 noundef 32)
  store ptr %18, ptr %4, align 8
  %19 = load ptr, ptr %3, align 8
  %20 = getelementptr inbounds nuw %struct.GISTENTRY, ptr %19, i32 0, i32 0
  %21 = load i64, ptr %20, align 8
  %22 = call ptr @DatumGetPointer(i64 noundef %21)
  %23 = icmp ne ptr %22, null
  br i1 %23, label %24, label %146

24:                                               ; preds = %17
  call void @llvm.lifetime.start.p0(i64 8, ptr %5) #7
  %25 = load ptr, ptr %3, align 8
  %26 = getelementptr inbounds nuw %struct.GISTENTRY, ptr %25, i32 0, i32 0
  %27 = load i64, ptr %26, align 8
  %28 = call ptr @DatumGetInetPP(i64 noundef %27)
  store ptr %28, ptr %5, align 8
  call void @llvm.lifetime.start.p0(i64 8, ptr %6) #7
  %29 = call ptr @palloc0(i64 noundef 20)
  store ptr %29, ptr %6, align 8
  %30 = load ptr, ptr %5, align 8
  %31 = getelementptr inbounds nuw %struct.varattrib_1b, ptr %30, i32 0, i32 0
  %32 = load i8, ptr %31, align 1
  %33 = zext i8 %32 to i32
  %34 = and i32 %33, 1
  %35 = icmp eq i32 %34, 1
  br i1 %35, label %36, label %40

36:                                               ; preds = %24
  %37 = load ptr, ptr %5, align 8
  %38 = getelementptr inbounds nuw %struct.varattrib_1b, ptr %37, i32 0, i32 1
  %39 = getelementptr inbounds [0 x i8], ptr %38, i64 0, i64 0
  br label %44

40:                                               ; preds = %24
  %41 = load ptr, ptr %5, align 8
  %42 = getelementptr inbounds nuw %struct.anon, ptr %41, i32 0, i32 1
  %43 = getelementptr inbounds [0 x i8], ptr %42, i64 0, i64 0
  br label %44

44:                                               ; preds = %40, %36
  %45 = phi ptr [ %39, %36 ], [ %43, %40 ]
  %46 = getelementptr inbounds nuw %struct.inet_struct, ptr %45, i32 0, i32 0
  %47 = load i8, ptr %46, align 1
  %48 = load ptr, ptr %6, align 8
  %49 = getelementptr inbounds nuw %struct.GistInetKey, ptr %48, i32 0, i32 1
  store i8 %47, ptr %49, align 1
  %50 = load ptr, ptr %5, align 8
  %51 = getelementptr inbounds nuw %struct.varattrib_1b, ptr %50, i32 0, i32 0
  %52 = load i8, ptr %51, align 1
  %53 = zext i8 %52 to i32
  %54 = and i32 %53, 1
  %55 = icmp eq i32 %54, 1
  br i1 %55, label %56, label %60

56:                                               ; preds = %44
  %57 = load ptr, ptr %5, align 8
  %58 = getelementptr inbounds nuw %struct.varattrib_1b, ptr %57, i32 0, i32 1
  %59 = getelementptr inbounds [0 x i8], ptr %58, i64 0, i64 0
  br label %64

60:                                               ; preds = %44
  %61 = load ptr, ptr %5, align 8
  %62 = getelementptr inbounds nuw %struct.anon, ptr %61, i32 0, i32 1
  %63 = getelementptr inbounds [0 x i8], ptr %62, i64 0, i64 0
  br label %64

64:                                               ; preds = %60, %56
  %65 = phi ptr [ %59, %56 ], [ %63, %60 ]
  %66 = getelementptr inbounds nuw %struct.inet_struct, ptr %65, i32 0, i32 1
  %67 = load i8, ptr %66, align 1
  %68 = load ptr, ptr %6, align 8
  %69 = getelementptr inbounds nuw %struct.GistInetKey, ptr %68, i32 0, i32 2
  store i8 %67, ptr %69, align 1
  %70 = load ptr, ptr %6, align 8
  %71 = getelementptr inbounds nuw %struct.GistInetKey, ptr %70, i32 0, i32 1
  %72 = load i8, ptr %71, align 1
  %73 = zext i8 %72 to i32
  %74 = icmp eq i32 %73, 3
  %75 = select i1 %74, i32 128, i32 32
  %76 = trunc i32 %75 to i8
  %77 = load ptr, ptr %6, align 8
  %78 = getelementptr inbounds nuw %struct.GistInetKey, ptr %77, i32 0, i32 3
  store i8 %76, ptr %78, align 1
  %79 = load ptr, ptr %6, align 8
  %80 = getelementptr inbounds nuw %struct.GistInetKey, ptr %79, i32 0, i32 4
  %81 = getelementptr inbounds [16 x i8], ptr %80, i64 0, i64 0
  %82 = load ptr, ptr %5, align 8
  %83 = getelementptr inbounds nuw %struct.varattrib_1b, ptr %82, i32 0, i32 0
  %84 = load i8, ptr %83, align 1
  %85 = zext i8 %84 to i32
  %86 = and i32 %85, 1
  %87 = icmp eq i32 %86, 1
  br i1 %87, label %88, label %92

88:                                               ; preds = %64
  %89 = load ptr, ptr %5, align 8
  %90 = getelementptr inbounds nuw %struct.varattrib_1b, ptr %89, i32 0, i32 1
  %91 = getelementptr inbounds [0 x i8], ptr %90, i64 0, i64 0
  br label %96

92:                                               ; preds = %64
  %93 = load ptr, ptr %5, align 8
  %94 = getelementptr inbounds nuw %struct.anon, ptr %93, i32 0, i32 1
  %95 = getelementptr inbounds [0 x i8], ptr %94, i64 0, i64 0
  br label %96

96:                                               ; preds = %92, %88
  %97 = phi ptr [ %91, %88 ], [ %95, %92 ]
  %98 = getelementptr inbounds nuw %struct.inet_struct, ptr %97, i32 0, i32 2
  %99 = getelementptr inbounds [16 x i8], ptr %98, i64 0, i64 0
  %100 = load ptr, ptr %6, align 8
  %101 = getelementptr inbounds nuw %struct.GistInetKey, ptr %100, i32 0, i32 1
  %102 = load i8, ptr %101, align 1
  %103 = zext i8 %102 to i32
  %104 = icmp eq i32 %103, 3
  %105 = select i1 %104, i32 16, i32 4
  %106 = sext i32 %105 to i64
  call void @llvm.memcpy.p0.p0.i64(ptr align 1 %81, ptr align 1 %99, i64 %106, i1 false)
  %107 = load ptr, ptr %6, align 8
  %108 = getelementptr inbounds nuw %struct.GistInetKey, ptr %107, i32 0, i32 1
  %109 = load i8, ptr %108, align 1
  %110 = zext i8 %109 to i32
  %111 = icmp eq i32 %110, 3
  %112 = select i1 %111, i32 16, i32 4
  %113 = sext i32 %112 to i64
  %114 = add i64 4, %113
  %115 = trunc i64 %114 to i8
  %116 = zext i8 %115 to i32
  %117 = shl i32 %116, 1
  %118 = or i32 %117, 1
  %119 = trunc i32 %118 to i8
  %120 = load ptr, ptr %6, align 8
  %121 = getelementptr inbounds nuw %struct.varattrib_1b, ptr %120, i32 0, i32 0
  store i8 %119, ptr %121, align 1
  br label %122

122:                                              ; preds = %96
  %123 = load ptr, ptr %6, align 8
  %124 = call i64 @PointerGetDatum(ptr noundef %123)
  %125 = load ptr, ptr %4, align 8
  %126 = getelementptr inbounds nuw %struct.GISTENTRY, ptr %125, i32 0, i32 0
  store i64 %124, ptr %126, align 8
  %127 = load ptr, ptr %3, align 8
  %128 = getelementptr inbounds nuw %struct.GISTENTRY, ptr %127, i32 0, i32 1
  %129 = load ptr, ptr %128, align 8
  %130 = load ptr, ptr %4, align 8
  %131 = getelementptr inbounds nuw %struct.GISTENTRY, ptr %130, i32 0, i32 1
  store ptr %129, ptr %131, align 8
  %132 = load ptr, ptr %3, align 8
  %133 = getelementptr inbounds nuw %struct.GISTENTRY, ptr %132, i32 0, i32 2
  %134 = load ptr, ptr %133, align 8
  %135 = load ptr, ptr %4, align 8
  %136 = getelementptr inbounds nuw %struct.GISTENTRY, ptr %135, i32 0, i32 2
  store ptr %134, ptr %136, align 8
  %137 = load ptr, ptr %3, align 8
  %138 = getelementptr inbounds nuw %struct.GISTENTRY, ptr %137, i32 0, i32 3
  %139 = load i16, ptr %138, align 8
  %140 = load ptr, ptr %4, align 8
  %141 = getelementptr inbounds nuw %struct.GISTENTRY, ptr %140, i32 0, i32 3
  store i16 %139, ptr %141, align 8
  %142 = load ptr, ptr %4, align 8
  %143 = getelementptr inbounds nuw %struct.GISTENTRY, ptr %142, i32 0, i32 4
  store i8 0, ptr %143, align 2
  br label %144

144:                                              ; preds = %122
  br label %145

145:                                              ; preds = %144
  call void @llvm.lifetime.end.p0(i64 8, ptr %6) #7
  call void @llvm.lifetime.end.p0(i64 8, ptr %5) #7
  br label %169

146:                                              ; preds = %17
  br label %147

147:                                              ; preds = %146
  %148 = load ptr, ptr %4, align 8
  %149 = getelementptr inbounds nuw %struct.GISTENTRY, ptr %148, i32 0, i32 0
  store i64 0, ptr %149, align 8
  %150 = load ptr, ptr %3, align 8
  %151 = getelementptr inbounds nuw %struct.GISTENTRY, ptr %150, i32 0, i32 1
  %152 = load ptr, ptr %151, align 8
  %153 = load ptr, ptr %4, align 8
  %154 = getelementptr inbounds nuw %struct.GISTENTRY, ptr %153, i32 0, i32 1
  store ptr %152, ptr %154, align 8
  %155 = load ptr, ptr %3, align 8
  %156 = getelementptr inbounds nuw %struct.GISTENTRY, ptr %155, i32 0, i32 2
  %157 = load ptr, ptr %156, align 8
  %158 = load ptr, ptr %4, align 8
  %159 = getelementptr inbounds nuw %struct.GISTENTRY, ptr %158, i32 0, i32 2
  store ptr %157, ptr %159, align 8
  %160 = load ptr, ptr %3, align 8
  %161 = getelementptr inbounds nuw %struct.GISTENTRY, ptr %160, i32 0, i32 3
  %162 = load i16, ptr %161, align 8
  %163 = load ptr, ptr %4, align 8
  %164 = getelementptr inbounds nuw %struct.GISTENTRY, ptr %163, i32 0, i32 3
  store i16 %162, ptr %164, align 8
  %165 = load ptr, ptr %4, align 8
  %166 = getelementptr inbounds nuw %struct.GISTENTRY, ptr %165, i32 0, i32 4
  store i8 0, ptr %166, align 2
  br label %167

167:                                              ; preds = %147
  br label %168

168:                                              ; preds = %167
  br label %169

169:                                              ; preds = %168, %145
  br label %172

170:                                              ; preds = %1
  %171 = load ptr, ptr %3, align 8
  store ptr %171, ptr %4, align 8
  br label %172

172:                                              ; preds = %170, %169
  %173 = load ptr, ptr %4, align 8
  %174 = call i64 @PointerGetDatum(ptr noundef %173)
  call void @llvm.lifetime.end.p0(i64 8, ptr %4) #7
  call void @llvm.lifetime.end.p0(i64 8, ptr %3) #7
  ret i64 %174
}