; Function Attrs: nounwind uwtable
define dso_local i64 @inet_gist_compress(ptr noundef readonly captures(none) %0) local_unnamed_addr #0 {
  %2 = getelementptr inbounds nuw i8, ptr %0, i64 32
  %3 = load i64, ptr %2, align 8
  %4 = inttoptr i64 %3 to ptr
  %5 = getelementptr inbounds nuw i8, ptr %4, i64 26
  %6 = load i8, ptr %5, align 2, !range !6, !noundef !7
  %7 = trunc nuw i8 %6 to i1
  br i1 %7, label %8, label %50

8:                                                ; preds = %1
  %9 = tail call ptr @palloc(i64 noundef 32) #8
  %10 = load i64, ptr %4, align 8
  %.not = icmp eq i64 %10, 0
  br i1 %.not, label %.sink.split, label %11

11:                                               ; preds = %8
  %12 = inttoptr i64 %10 to ptr
  %13 = tail call ptr @pg_detoast_datum_packed(ptr noundef nonnull %12) #8
  %14 = tail call ptr @palloc0(i64 noundef 20) #8
  %15 = load i8, ptr %13, align 1
  %16 = and i8 %15, 1
  %.not40 = icmp eq i8 %16, 0
  %17 = getelementptr inbounds nuw i8, ptr %13, i64 1
  %18 = getelementptr inbounds nuw i8, ptr %13, i64 4
  %19 = select i1 %.not40, ptr %18, ptr %17
  %20 = load i8, ptr %19, align 1
  %21 = getelementptr inbounds nuw i8, ptr %14, i64 1
  store i8 %20, ptr %21, align 1
  %22 = load i8, ptr %13, align 1
  %23 = and i8 %22, 1
  %.not41 = icmp eq i8 %23, 0
  %24 = select i1 %.not41, ptr %18, ptr %17
  %25 = getelementptr inbounds nuw i8, ptr %24, i64 1
  %26 = load i8, ptr %25, align 1
  %27 = getelementptr inbounds nuw i8, ptr %14, i64 2
  store i8 %26, ptr %27, align 1
  %28 = icmp eq i8 %20, 3
  %29 = select i1 %28, i8 -128, i8 32
  %30 = getelementptr inbounds nuw i8, ptr %14, i64 3
  store i8 %29, ptr %30, align 1
  %31 = getelementptr inbounds nuw i8, ptr %14, i64 4
  %32 = load i8, ptr %13, align 1
  %33 = and i8 %32, 1
  %.not42 = icmp eq i8 %33, 0
  %34 = select i1 %.not42, ptr %18, ptr %17
  %35 = getelementptr inbounds nuw i8, ptr %34, i64 2
  %36 = select i1 %28, i64 16, i64 4
  tail call void @llvm.memcpy.p0.p0.i64(ptr noundef nonnull align 1 dereferenceable(4) %31, ptr noundef nonnull align 1 dereferenceable(4) %35, i64 %36, i1 false)
  %37 = select i1 %28, i8 41, i8 17
  store i8 %37, ptr %14, align 1
  %38 = ptrtoint ptr %14 to i64
  br label %.sink.split

.sink.split:                                      ; preds = %8, %11
  %.sink = phi i64 [ %38, %11 ], [ 0, %8 ]
  store i64 %.sink, ptr %9, align 8
  %39 = getelementptr inbounds nuw i8, ptr %4, i64 8
  %40 = load ptr, ptr %39, align 8
  %41 = getelementptr inbounds nuw i8, ptr %9, i64 8
  store ptr %40, ptr %41, align 8
  %42 = getelementptr inbounds nuw i8, ptr %4, i64 16
  %43 = load ptr, ptr %42, align 8
  %44 = getelementptr inbounds nuw i8, ptr %9, i64 16
  store ptr %43, ptr %44, align 8
  %45 = getelementptr inbounds nuw i8, ptr %4, i64 24
  %46 = load i16, ptr %45, align 8
  %47 = getelementptr inbounds nuw i8, ptr %9, i64 24
  store i16 %46, ptr %47, align 8
  %48 = getelementptr inbounds nuw i8, ptr %9, i64 26
  store i8 0, ptr %48, align 2
  %49 = ptrtoint ptr %9 to i64
  br label %50

50:                                               ; preds = %.sink.split, %1
  %.0 = phi i64 [ %3, %1 ], [ %49, %.sink.split ]
  ret i64 %.0
}